; Function Attrs: mustprogress uwtable
define dso_local void @_ZNK4i18n12phonenumbers15PhoneNumberUtil27GetRegionCodeForCountryCodeEiPNSt7__cxx1112basic_stringIcSt11char_traitsIcESaIcEEE(ptr nocapture noundef nonnull readonly align 8 dereferenceable(64) %0, i32 noundef %1, ptr noundef %2) local_unnamed_addr #4 align 2 personality ptr @__gxx_personality_v0 {
  %4 = alloca %"class.std::__cxx11::list", align 8
  %5 = alloca %"class.std::__cxx11::basic_string", align 8
  %6 = alloca %"class.std::allocator", align 1
  %7 = getelementptr inbounds i8, ptr %4, i64 8
  store ptr %4, ptr %7, align 8
  store ptr %4, ptr %4, align 8
  %8 = getelementptr inbounds i8, ptr %4, i64 16
  store i64 0, ptr %8, align 8
  invoke void @_ZNK4i18n12phonenumbers15PhoneNumberUtil35GetRegionCodesForCountryCallingCodeEiPNSt7__cxx114listINS2_12basic_stringIcSt11char_traitsIcESaIcEEESaIS8_EEE(ptr noundef nonnull align 8 dereferenceable(64) %0, i32 noundef %1, ptr noundef nonnull %4)
          to label %9 unwind label %24

9:                                                ; preds = %3
  %10 = load i64, ptr %8, align 8
  %.not = icmp eq i64 %10, 0
  br i1 %.not, label %14, label %11

11:                                               ; preds = %9
  %12 = load ptr, ptr %4, align 8
  %13 = getelementptr inbounds i8, ptr %12, i64 16
  invoke void @_ZNSt7__cxx1112basic_stringIcSt11char_traitsIcESaIcEEC1ERKS4_(ptr noundef nonnull align 8 dereferenceable(32) %5, ptr noundef nonnull align 8 dereferenceable(32) %13)
          to label %_ZNSt7__cxx1112basic_stringIcSt11char_traitsIcESaIcEEC2IS3_EEPKcRKS3_.exit unwind label %24

14:                                               ; preds = %9
  call void @_ZNSaIcEC1Ev(ptr noundef nonnull align 1 dereferenceable(1) %6) #26
  %15 = invoke noundef ptr @_ZNSt7__cxx1112basic_stringIcSt11char_traitsIcESaIcEE13_M_local_dataEv(ptr noundef nonnull align 8 dereferenceable(32) %5)
          to label %.noexc unwind label %26

.noexc:                                           ; preds = %14
  invoke void @_ZNSt7__cxx1112basic_stringIcSt11char_traitsIcESaIcEE12_Alloc_hiderC1EPcRKS3_(ptr noundef nonnull align 8 dereferenceable(8) %5, ptr noundef %15, ptr noundef nonnull align 1 dereferenceable(1) %6)
          to label %.noexc9 unwind label %26

.noexc9:                                          ; preds = %.noexc
  invoke void @_ZNSt7__cxx1112basic_stringIcSt11char_traitsIcESaIcEE12_M_constructIPKcEEvT_S8_St20forward_iterator_tag(ptr noundef nonnull align 8 dereferenceable(32) %5, ptr noundef nonnull @.str.144, ptr noundef nonnull getelementptr inbounds ([3 x i8], ptr @.str.144, i64 0, i64 2))
          to label %_ZNSt7__cxx1112basic_stringIcSt11char_traitsIcESaIcEEC2IS3_EEPKcRKS3_.exit unwind label %16

16:                                               ; preds = %.noexc9
  %17 = landingpad { ptr, i32 }
          cleanup
  call void @_ZNSaIcED2Ev(ptr noundef nonnull align 1 dereferenceable(1) %5) #26
  br label %.body

_ZNSt7__cxx1112basic_stringIcSt11char_traitsIcESaIcEEC2IS3_EEPKcRKS3_.exit: ; preds = %.noexc9, %11
  %18 = call noundef nonnull align 8 dereferenceable(32) ptr @_ZNSt7__cxx1112basic_stringIcSt11char_traitsIcESaIcEEaSEOS4_(ptr noundef nonnull align 8 dereferenceable(32) %2, ptr noundef nonnull align 8 dereferenceable(32) %5) #26
  call void @_ZNSt7__cxx1112basic_stringIcSt11char_traitsIcESaIcEED1Ev(ptr noundef nonnull align 8 dereferenceable(32) %5) #26
  br i1 %.not, label %19, label %20

19:                                               ; preds = %_ZNSt7__cxx1112basic_stringIcSt11char_traitsIcESaIcEEC2IS3_EEPKcRKS3_.exit
  call void @_ZNSaIcED1Ev(ptr noundef nonnull align 1 dereferenceable(1) %6) #26
  br label %20

20:                                               ; preds = %19, %_ZNSt7__cxx1112basic_stringIcSt11char_traitsIcESaIcEEC2IS3_EEPKcRKS3_.exit
  %21 = load ptr, ptr %4, align 8
  %.not8.i.i.i = icmp eq ptr %21, %4
  br i1 %.not8.i.i.i, label %_ZNSt7__cxx114listINS_12basic_stringIcSt11char_traitsIcESaIcEEESaIS5_EED2Ev.exit, label %.lr.ph.i.i.i

.lr.ph.i.i.i:                                     ; preds = %20, %.lr.ph.i.i.i
  %.09.i.i.i = phi ptr [ %22, %.lr.ph.i.i.i ], [ %21, %20 ]
  %22 = load ptr, ptr %.09.i.i.i, align 8
  %23 = getelementptr inbounds i8, ptr %.09.i.i.i, i64 16
  call void @_ZNSt7__cxx1112basic_stringIcSt11char_traitsIcESaIcEED1Ev(ptr noundef nonnull align 8 dereferenceable(32) %23) #26
  call void @_ZdlPv(ptr noundef %.09.i.i.i) #29
  %.not.i.i.i = icmp eq ptr %22, %4
  br i1 %.not.i.i.i, label %_ZNSt7__cxx114listINS_12basic_stringIcSt11char_traitsIcESaIcEEESaIS5_EED2Ev.exit, label %.lr.ph.i.i.i, !llvm.loop !71

_ZNSt7__cxx114listINS_12basic_stringIcSt11char_traitsIcESaIcEEESaIS5_EED2Ev.exit: ; preds = %.lr.ph.i.i.i, %20
  ret void

24:                                               ; preds = %11, %3
  %25 = landingpad { ptr, i32 }
          cleanup
  br label %28

26:                                               ; preds = %.noexc, %14
  %27 = landingpad { ptr, i32 }
          cleanup
  br label %.body

.body:                                            ; preds = %16, %26
  %eh.lpad-body = phi { ptr, i32 } [ %27, %26 ], [ %17, %16 ]
  call void @_ZNSaIcED1Ev(ptr noundef nonnull align 1 dereferenceable(1) %6) #26
  br label %28

28:                                               ; preds = %.body, %24
  %.pn = phi { ptr, i32 } [ %25, %24 ], [ %eh.lpad-body, %.body ]
  call void @_ZNSt7__cxx114listINS_12basic_stringIcSt11char_traitsIcESaIcEEESaIS5_EED2Ev(ptr noundef nonnull align 8 dereferenceable(24) %4) #26
  resume { ptr, i32 } %.pn
}